; Function Attrs: mustprogress uwtable
define void @_ZN5faiss19InvertedListsIOHook15print_callbacksEv() local_unnamed_addr #2 align 2 {
  %1 = load ptr, ptr getelementptr inbounds nuw (i8, ptr @_ZN5faiss12_GLOBAL__N_125InvertedListsIOHook_tableE, i64 8), align 8, !tbaa !25
  %2 = load ptr, ptr @_ZN5faiss12_GLOBAL__N_125InvertedListsIOHook_tableE, align 8, !tbaa !20
  %3 = ptrtoint ptr %1 to i64
  %4 = ptrtoint ptr %2 to i64
  %5 = sub i64 %3, %4
  %6 = ashr exact i64 %5, 3
  %7 = tail call i32 (ptr, ...) @printf(ptr noundef nonnull dereferenceable(1) @.str.4, i64 noundef %6)
  %8 = load ptr, ptr @_ZN5faiss12_GLOBAL__N_125InvertedListsIOHook_tableE, align 8, !tbaa !18
  %9 = load ptr, ptr getelementptr inbounds nuw (i8, ptr @_ZN5faiss12_GLOBAL__N_125InvertedListsIOHook_tableE, i64 8), align 8, !tbaa !18
  %.not6 = icmp eq ptr %8, %9
  br i1 %.not6, label %._crit_edge, label %.lr.ph

._crit_edge:                                      ; preds = %.lr.ph, %0
  ret void

.lr.ph:                                           ; preds = %0, %.lr.ph
  %.sroa.03.07 = phi ptr [ %20, %.lr.ph ], [ %8, %0 ]
  %10 = load ptr, ptr %.sroa.03.07, align 8, !tbaa !23
  %11 = getelementptr inbounds nuw i8, ptr %10, i64 8
  %12 = load ptr, ptr %11, align 8, !tbaa !14
  %13 = tail call noundef i32 @_ZN5faiss6fourccEPKc(ptr noundef %12)
  %14 = load ptr, ptr %.sroa.03.07, align 8, !tbaa !23
  %15 = getelementptr inbounds nuw i8, ptr %14, i64 8
  %16 = load ptr, ptr %15, align 8, !tbaa !14
  %17 = getelementptr inbounds nuw i8, ptr %14, i64 40
  %18 = load ptr, ptr %17, align 8, !tbaa !14
  %19 = tail call i32 (ptr, ...) @printf(ptr noundef nonnull dereferenceable(1) @.str.5, i32 noundef %13, ptr noundef %16, ptr noundef %18)
  %20 = getelementptr inbounds nuw i8, ptr %.sroa.03.07, i64 8
  %.not = icmp eq ptr %20, %9
  br i1 %.not, label %._crit_edge, label %.lr.ph
}